(lp0
(lp1
S'NN'
p2
aS'VBD'
p3
aS'RB'
p4
aS'VB'
p5
ag2
aS'.'
p6
aa(lp7
S'VBP'
p8
aS'PRP'
p9
ag8
ag5
aS'RB'
p10
ag6
aa(lp11
S'MD'
p12
aS'NNS'
p13
ag5
aS'IN'
p14
aS'VBN'
p15
aS'JJ'
p16
ag10
ag6
aa(lp17
S'DT'
p18
aS'VBZ'
p19
aS'RB'
p20
aS'IN'
p21
aS'NNS'
p22
ag6
aa(lp23
g10
ag8
aS'DT'
p24
ag22
ag6
aa(lp25
S'WRB'
p26
aS'JJ'
p27
aS'NNP'
p28
ag22
aS'VBZ'
p29
aS'PRP'
p30
ag15
ag6
aa(lp31
g26
ag27
aS'NNS'
p32
aS'IN'
p33
aS'DT'
p34
ag2
ag6
aa(lp35
S'CC'
p36
aS'DT'
p37
ag2
ag33
aS'CD'
p38
ag22
ag6
aa(lp39
g28
ag9
aS'VBG'
p40
aS'PRP'
p41
ag6
aa(lp42
S'DT'
p43
aS'VBZ'
p44
ag37
ag16
ag2
ag6
aa(lp45
g22
aS'WDT'
p46
ag8
ag22
aS'RB'
p47
ag33
ag40
aS'PRP'
p48
ag6
aa(lp49
g10
ag8
ag16
ag22
ag8
ag6
aa(lp50
g22
aS'IN'
p51
ag34
ag2
ag6
aa(lp52
g28
ag44
ag28
ag36
aS'WRB'
p53
aS'MD'
p54
aS'PRP'
p55
ag5
ag6
aa(lp56
S'WP'
p57
ag28
aS'VBZ'
p58
ag4
ag5
ag9
aS'TO'
p59
ag5
ag6
aa(lp60
g57
aS'NN'
p61
aS'VBP'
p62
ag55
aS'IN'
p63
aS'RB'
p64
ag6
aa(lp65
S'WP'
p66
ag10
ag28
ag21
ag34
aS'JJ'
p67
ag2
ag6
aa(lp68
g57
aS'VBD'
p69
ag34
aS'NN'
p70
ag21
ag6
aa(lp71
g66
ag69
aS'VBG'
p72
ag15
ag51
ag66
ag6
aa(lp73
g26
ag44
ag30
ag10
ag6
aa(lp74
g43
ag44
aS'CD'
p75
aS'NNS'
p76
aS'JJ'
p77
ag6
aa(lp78
S'PRP'
p79
ag8
ag22
ag2
ag6
aa(lp80
g28
aS'NNS'
p81
aS'RBR'
p82
ag10
ag6
aa(lp83
g28
ag2
ag6
ag6
ag6
ag6
ag6
ag6
ag6
aa(lp84
g79
aS'RB'
p85
ag8
ag28
ag28
ag44
ag21
ag16
ag6
aa(lp86
S'TO'
p87
ag5
aS'WRB'
p88
ag16
aS'PRP'
p89
aS'VBP'
p90
ag6
aa(lp91
S'WRB'
p92
aS'NNS'
p93
ag8
ag66
ag19
aS'JJ'
p94
ag93
ag8
ag6
aa(lp95
g28
ag22
ag37
ag16
aS'NN'
p96
ag6
aa(lp97
g28
ag22
ag37
ag16
ag96
ag6
aa(lp98
g57
ag44
ag34
ag2
ag2
ag6
aa(lp99
g62
ag55
aS'JJ'
p100
ag59
ag5
ag34
ag22
ag6
aa(lp101
g57
ag19
ag34
aS'NN'
p102
ag40
aS'DT'
p103
ag59
ag5
ag6
aa(lp104
g92
ag10
ag16
aS'IN'
p105
ag103
aS'CD'
p106
ag6
aa(lp107
g55
ag8
ag16
ag16
aS'CC'
p108
ag2
ag2
ag6
aa(lp109
g5
ag9
ag5
ag88
ag16
ag18
ag44
ag6
aa(lp110
g28
ag88
ag3
ag9
ag6
aa(lp111
g2
ag69
ag59
ag5
aS'RP'
p112
ag18
ag2
ag6
aa(lp113
g28
ag24
aS'NN'
p114
ag2
ag22
ag21
ag40
ag6
aa(lp115
g57
ag29
ag15
ag63
ag103
ag61
ag6
aa(lp116
g28
ag44
ag16
ag2
ag6
aa(lp117
S'NNP'
p118
ag28
ag2
ag6
ag6
aa(lp119
g10
ag59
ag5
aS'PRP$'
p120
ag16
ag2
aS':'
p121
ag2
ag6
aa(lp122
g57
ag69
ag59
ag40
ag16
ag2
ag6
aa(lp123
g21
ag9
ag90
ag37
ag2
ag2
ag6
aa(lp124
S'CC'
p125
aS'DT'
p126
ag22
ag8
ag22
ag33
ag2
ag2
ag6
aa(lp127
g19
aS'NN'
p128
aS'NN'
p129
ag2
aS'CC'
p130
ag2
ag6
aa(lp131
g16
ag22
ag8
ag10
ag21
ag66
ag6
aa(lp132
g2
ag29
aS'JJR'
p133
ag22
aS'IN'
p134
ag28
ag6
aa(lp135
g92
ag8
ag4
ag9
ag8
ag18
ag47
ag6
aa(lp136
g57
ag90
aS'PRP'
p137
aS'CD'
p138
ag6
aa(lp139
g10
ag28
ag9
ag8
ag6
aa.